target datalayout = "e-m:e-p270:32:32-p271:32:32-p272:64:64-i64:64-i128:128-f80:128-n8:16:32:64-S128"
target triple = "x86_64-pc-linux-gnu"

%struct.gz_state = type { %struct.gzFile_s, i32, i32, ptr, i32, i32, ptr, ptr, i32, i32, i64, i32, i32, i32, i32, i64, i32, i32, ptr, %struct.z_stream_s }
%struct.gzFile_s = type { i32, ptr, i64 }
%struct.z_stream_s = type { ptr, i32, i64, ptr, i32, i64, ptr, ptr, ptr, ptr, ptr, i32, i64, i64, i32 }

; Function Attrs: nounwind uwtable
define internal i32 @gz_zero(ptr noundef %0, i64 noundef %1) #0 {
  %3 = alloca i32, align 4
  %4 = alloca ptr, align 8
  %5 = alloca i64, align 8
  %6 = alloca i32, align 4
  %7 = alloca i32, align 4
  %8 = alloca ptr, align 8
  %9 = alloca i32, align 4
  store ptr %0, ptr %4, align 8, !tbaa !8
  store i64 %1, ptr %5, align 8, !tbaa !41
  call void @llvm.lifetime.start.p0(i64 4, ptr %6) #10
  call void @llvm.lifetime.start.p0(i64 4, ptr %7) #10
  call void @llvm.lifetime.start.p0(i64 8, ptr %8) #10
  %10 = load ptr, ptr %4, align 8, !tbaa !8
  %11 = getelementptr inbounds nuw %struct.gz_state, ptr %10, i32 0, i32 19
  store ptr %11, ptr %8, align 8, !tbaa !11
  %12 = load ptr, ptr %8, align 8, !tbaa !11
  %13 = getelementptr inbounds nuw %struct.z_stream_s, ptr %12, i32 0, i32 1
  %14 = load i32, ptr %13, align 8, !tbaa !24
  %15 = icmp ne i32 %14, 0
  br i1 %15, label %16, label %21

16:                                               ; preds = %2
  %17 = load ptr, ptr %4, align 8, !tbaa !8
  %18 = call i32 @gz_comp(ptr noundef %17, i32 noundef 0)
  %19 = icmp eq i32 %18, -1
  br i1 %19, label %20, label %21

20:                                               ; preds = %16
  store i32 -1, ptr %3, align 4
  store i32 1, ptr %9, align 4
  br label %75

21:                                               ; preds = %16, %2
  store i32 1, ptr %6, align 4, !tbaa !9
  br label %22

22:                                               ; preds = %69, %21
  %23 = load i64, ptr %5, align 8, !tbaa !41
  %24 = icmp ne i64 %23, 0
  br i1 %24, label %25, label %74

25:                                               ; preds = %22
  %26 = load ptr, ptr %4, align 8, !tbaa !8
  %27 = getelementptr inbounds nuw %struct.gz_state, ptr %26, i32 0, i32 4
  %28 = load i32, ptr %27, align 8, !tbaa !21
  %29 = zext i32 %28 to i64
  %30 = load i64, ptr %5, align 8, !tbaa !41
  %31 = icmp sgt i64 %29, %30
  br i1 %31, label %32, label %35

32:                                               ; preds = %25
  %33 = load i64, ptr %5, align 8, !tbaa !41
  %34 = trunc i64 %33 to i32
  br label %39

35:                                               ; preds = %25
  %36 = load ptr, ptr %4, align 8, !tbaa !8
  %37 = getelementptr inbounds nuw %struct.gz_state, ptr %36, i32 0, i32 4
  %38 = load i32, ptr %37, align 8, !tbaa !21
  br label %39

39:                                               ; preds = %35, %32
  %40 = phi i32 [ %34, %32 ], [ %38, %35 ]
  store i32 %40, ptr %7, align 4, !tbaa !9
  %41 = load i32, ptr %6, align 4, !tbaa !9
  %42 = icmp ne i32 %41, 0
  br i1 %42, label %43, label %49

43:                                               ; preds = %39
  %44 = load ptr, ptr %4, align 8, !tbaa !8
  %45 = getelementptr inbounds nuw %struct.gz_state, ptr %44, i32 0, i32 6
  %46 = load ptr, ptr %45, align 8, !tbaa !25
  %47 = load i32, ptr %7, align 4, !tbaa !9
  %48 = zext i32 %47 to i64
  call void @llvm.memset.p0.i64(ptr align 1 %46, i8 0, i64 %48, i1 false)
  store i32 0, ptr %6, align 4, !tbaa !9
  br label %49

49:                                               ; preds = %43, %39
  %50 = load i32, ptr %7, align 4, !tbaa !9
  %51 = load ptr, ptr %8, align 8, !tbaa !11
  %52 = getelementptr inbounds nuw %struct.z_stream_s, ptr %51, i32 0, i32 1
  store i32 %50, ptr %52, align 8, !tbaa !24
  %53 = load ptr, ptr %4, align 8, !tbaa !8
  %54 = getelementptr inbounds nuw %struct.gz_state, ptr %53, i32 0, i32 6
  %55 = load ptr, ptr %54, align 8, !tbaa !25
  %56 = load ptr, ptr %8, align 8, !tbaa !11
  %57 = getelementptr inbounds nuw %struct.z_stream_s, ptr %56, i32 0, i32 0
  store ptr %55, ptr %57, align 8, !tbaa !26
  %58 = load i32, ptr %7, align 4, !tbaa !9
  %59 = zext i32 %58 to i64
  %60 = load ptr, ptr %4, align 8, !tbaa !8
  %61 = getelementptr inbounds nuw %struct.gz_state, ptr %60, i32 0, i32 0
  %62 = getelementptr inbounds nuw %struct.gzFile_s, ptr %61, i32 0, i32 2
  %63 = load i64, ptr %62, align 8, !tbaa !27
  %64 = add nsw i64 %63, %59
  store i64 %64, ptr %62, align 8, !tbaa !27
  %65 = load ptr, ptr %4, align 8, !tbaa !8
  %66 = call i32 @gz_comp(ptr noundef %65, i32 noundef 0)
  %67 = icmp eq i32 %66, -1
  br i1 %67, label %68, label %69

68:                                               ; preds = %49
  store i32 -1, ptr %3, align 4
  store i32 1, ptr %9, align 4
  br label %75

69:                                               ; preds = %49
  %70 = load i32, ptr %7, align 4, !tbaa !9
  %71 = zext i32 %70 to i64
  %72 = load i64, ptr %5, align 8, !tbaa !41
  %73 = sub nsw i64 %72, %71
  store i64 %73, ptr %5, align 8, !tbaa !41
  br label %22, !llvm.loop !42

74:                                               ; preds = %22
  store i32 0, ptr %3, align 4
  store i32 1, ptr %9, align 4
  br label %75

75:                                               ; preds = %74, %68, %20
  call void @llvm.lifetime.end.p0(i64 8, ptr %8) #10
  call void @llvm.lifetime.end.p0(i64 4, ptr %7) #10
  call void @llvm.lifetime.end.p0(i64 4, ptr %6) #10
  %76 = load i32, ptr %3, align 4
  ret i32 %76
}

; Function Attrs: nounwind uwtable
define i32 @MOZ_Z_gzvprintf(ptr noundef %0, ptr noundef %1, ptr noundef %2) #0 {
  %4 = alloca i32, align 4
  %5 = alloca ptr, align 8
  %6 = alloca ptr, align 8
  %7 = alloca ptr, align 8
  %8 = alloca i32, align 4
  %9 = alloca i32, align 4
  %10 = alloca ptr, align 8
  %11 = alloca ptr, align 8
  %12 = alloca i32, align 4
  store ptr %0, ptr %5, align 8, !tbaa !3
  store ptr %1, ptr %6, align 8, !tbaa !46
  store ptr %2, ptr %7, align 8, !tbaa !47
  call void @llvm.lifetime.start.p0(i64 4, ptr %8) #10
  call void @llvm.lifetime.start.p0(i64 4, ptr %9) #10
  call void @llvm.lifetime.start.p0(i64 8, ptr %10) #10
  call void @llvm.lifetime.start.p0(i64 8, ptr %11) #10
  %13 = load ptr, ptr %5, align 8, !tbaa !3
  %14 = icmp eq ptr %13, null
  br i1 %14, label %15, label %16

15:                                               ; preds = %3
  store i32 -1, ptr %4, align 4
  store i32 1, ptr %12, align 4
  br label %120

16:                                               ; preds = %3
  %17 = load ptr, ptr %5, align 8, !tbaa !3
  store ptr %17, ptr %10, align 8, !tbaa !8
  %18 = load ptr, ptr %10, align 8, !tbaa !8
  %19 = getelementptr inbounds nuw %struct.gz_state, ptr %18, i32 0, i32 19
  store ptr %19, ptr %11, align 8, !tbaa !11
  %20 = load ptr, ptr %10, align 8, !tbaa !8
  %21 = getelementptr inbounds nuw %struct.gz_state, ptr %20, i32 0, i32 1
  %22 = load i32, ptr %21, align 8, !tbaa !13
  %23 = icmp ne i32 %22, 31153
  br i1 %23, label %29, label %24

24:                                               ; preds = %16
  %25 = load ptr, ptr %10, align 8, !tbaa !8
  %26 = getelementptr inbounds nuw %struct.gz_state, ptr %25, i32 0, i32 17
  %27 = load i32, ptr %26, align 4, !tbaa !20
  %28 = icmp ne i32 %27, 0
  br i1 %28, label %29, label %30

29:                                               ; preds = %24, %16
  store i32 0, ptr %4, align 4
  store i32 1, ptr %12, align 4
  br label %120

30:                                               ; preds = %24
  %31 = load ptr, ptr %10, align 8, !tbaa !8
  %32 = getelementptr inbounds nuw %struct.gz_state, ptr %31, i32 0, i32 4
  %33 = load i32, ptr %32, align 8, !tbaa !21
  %34 = icmp eq i32 %33, 0
  br i1 %34, label %35, label %40

35:                                               ; preds = %30
  %36 = load ptr, ptr %10, align 8, !tbaa !8
  %37 = call i32 @gz_init(ptr noundef %36)
  %38 = icmp eq i32 %37, -1
  br i1 %38, label %39, label %40

39:                                               ; preds = %35
  store i32 0, ptr %4, align 4
  store i32 1, ptr %12, align 4
  br label %120

40:                                               ; preds = %35, %30
  %41 = load ptr, ptr %10, align 8, !tbaa !8
  %42 = getelementptr inbounds nuw %struct.gz_state, ptr %41, i32 0, i32 16
  %43 = load i32, ptr %42, align 8, !tbaa !22
  %44 = icmp ne i32 %43, 0
  br i1 %44, label %45, label %56

45:                                               ; preds = %40
  %46 = load ptr, ptr %10, align 8, !tbaa !8
  %47 = getelementptr inbounds nuw %struct.gz_state, ptr %46, i32 0, i32 16
  store i32 0, ptr %47, align 8, !tbaa !22
  %48 = load ptr, ptr %10, align 8, !tbaa !8
  %49 = load ptr, ptr %10, align 8, !tbaa !8
  %50 = getelementptr inbounds nuw %struct.gz_state, ptr %49, i32 0, i32 15
  %51 = load i64, ptr %50, align 8, !tbaa !23
  %52 = call i32 @gz_zero(ptr noundef %48, i64 noundef %51)
  %53 = icmp eq i32 %52, -1
  br i1 %53, label %54, label %55

54:                                               ; preds = %45
  store i32 0, ptr %4, align 4
  store i32 1, ptr %12, align 4
  br label %120

55:                                               ; preds = %45
  br label %56

56:                                               ; preds = %55, %40
  %57 = load ptr, ptr %11, align 8, !tbaa !11
  %58 = getelementptr inbounds nuw %struct.z_stream_s, ptr %57, i32 0, i32 1
  %59 = load i32, ptr %58, align 8, !tbaa !24
  %60 = icmp ne i32 %59, 0
  br i1 %60, label %61, label %66

61:                                               ; preds = %56
  %62 = load ptr, ptr %10, align 8, !tbaa !8
  %63 = call i32 @gz_comp(ptr noundef %62, i32 noundef 0)
  %64 = icmp eq i32 %63, -1
  br i1 %64, label %65, label %66

65:                                               ; preds = %61
  store i32 0, ptr %4, align 4
  store i32 1, ptr %12, align 4
  br label %120

66:                                               ; preds = %61, %56
  %67 = load ptr, ptr %10, align 8, !tbaa !8
  %68 = getelementptr inbounds nuw %struct.gz_state, ptr %67, i32 0, i32 4
  %69 = load i32, ptr %68, align 8, !tbaa !21
  store i32 %69, ptr %8, align 4, !tbaa !9
  %70 = load ptr, ptr %10, align 8, !tbaa !8
  %71 = getelementptr inbounds nuw %struct.gz_state, ptr %70, i32 0, i32 6
  %72 = load ptr, ptr %71, align 8, !tbaa !25
  %73 = load i32, ptr %8, align 4, !tbaa !9
  %74 = sub nsw i32 %73, 1
  %75 = sext i32 %74 to i64
  %76 = getelementptr inbounds i8, ptr %72, i64 %75
  store i8 0, ptr %76, align 1, !tbaa !45
  %77 = load ptr, ptr %10, align 8, !tbaa !8
  %78 = getelementptr inbounds nuw %struct.gz_state, ptr %77, i32 0, i32 6
  %79 = load ptr, ptr %78, align 8, !tbaa !25
  %80 = load i32, ptr %8, align 4, !tbaa !9
  %81 = sext i32 %80 to i64
  %82 = load ptr, ptr %6, align 8, !tbaa !46
  %83 = load ptr, ptr %7, align 8, !tbaa !47
  %84 = call i32 @vsnprintf(ptr noundef %79, i64 noundef %81, ptr noundef %82, ptr noundef %83) #10
  store i32 %84, ptr %9, align 4, !tbaa !9
  %85 = load i32, ptr %9, align 4, !tbaa !9
  %86 = icmp sle i32 %85, 0
  br i1 %86, label %102, label %87

87:                                               ; preds = %66
  %88 = load i32, ptr %9, align 4, !tbaa !9
  %89 = load i32, ptr %8, align 4, !tbaa !9
  %90 = icmp sge i32 %88, %89
  br i1 %90, label %102, label %91

91:                                               ; preds = %87
  %92 = load ptr, ptr %10, align 8, !tbaa !8
  %93 = getelementptr inbounds nuw %struct.gz_state, ptr %92, i32 0, i32 6
  %94 = load ptr, ptr %93, align 8, !tbaa !25
  %95 = load i32, ptr %8, align 4, !tbaa !9
  %96 = sub nsw i32 %95, 1
  %97 = sext i32 %96 to i64
  %98 = getelementptr inbounds i8, ptr %94, i64 %97
  %99 = load i8, ptr %98, align 1, !tbaa !45
  %100 = zext i8 %99 to i32
  %101 = icmp ne i32 %100, 0
  br i1 %101, label %102, label %103

102:                                              ; preds = %91, %87, %66
  store i32 0, ptr %4, align 4
  store i32 1, ptr %12, align 4
  br label %120

103:                                              ; preds = %91
  %104 = load i32, ptr %9, align 4, !tbaa !9
  %105 = load ptr, ptr %11, align 8, !tbaa !11
  %106 = getelementptr inbounds nuw %struct.z_stream_s, ptr %105, i32 0, i32 1
  store i32 %104, ptr %106, align 8, !tbaa !24
  %107 = load ptr, ptr %10, align 8, !tbaa !8
  %108 = getelementptr inbounds nuw %struct.gz_state, ptr %107, i32 0, i32 6
  %109 = load ptr, ptr %108, align 8, !tbaa !25
  %110 = load ptr, ptr %11, align 8, !tbaa !11
  %111 = getelementptr inbounds nuw %struct.z_stream_s, ptr %110, i32 0, i32 0
  store ptr %109, ptr %111, align 8, !tbaa !26
  %112 = load i32, ptr %9, align 4, !tbaa !9
  %113 = sext i32 %112 to i64
  %114 = load ptr, ptr %10, align 8, !tbaa !8
  %115 = getelementptr inbounds nuw %struct.gz_state, ptr %114, i32 0, i32 0
  %116 = getelementptr inbounds nuw %struct.gzFile_s, ptr %115, i32 0, i32 2
  %117 = load i64, ptr %116, align 8, !tbaa !27
  %118 = add nsw i64 %117, %113
  store i64 %118, ptr %116, align 8, !tbaa !27
  %119 = load i32, ptr %9, align 4, !tbaa !9
  store i32 %119, ptr %4, align 4
  store i32 1, ptr %12, align 4
  br label %120

120:                                              ; preds = %103, %102, %65, %54, %39, %29, %15
  call void @llvm.lifetime.end.p0(i64 8, ptr %11) #10
  call void @llvm.lifetime.end.p0(i64 8, ptr %10) #10
  call void @llvm.lifetime.end.p0(i64 4, ptr %9) #10
  call void @llvm.lifetime.end.p0(i64 4, ptr %8) #10
  %121 = load i32, ptr %4, align 4
  ret i32 %121
}