; Function Attrs: nounwind uwtable
define range(i32 -1, 2147483647) i32 @MOZ_Z_gzvprintf(ptr noundef %0, ptr noundef readonly captures(none) %1, ptr noundef %2) local_unnamed_addr #0 {
  %4 = icmp eq ptr %0, null
  br i1 %4, label %gz_zero.exit.thread, label %5

5:                                                ; preds = %3
  %6 = getelementptr inbounds nuw i8, ptr %0, i64 120
  %7 = getelementptr inbounds nuw i8, ptr %0, i64 24
  %8 = load i32, ptr %7, align 8, !tbaa !3
  %.not = icmp eq i32 %8, 31153
  br i1 %.not, label %9, label %gz_zero.exit.thread

9:                                                ; preds = %5
  %10 = getelementptr inbounds nuw i8, ptr %0, i64 108
  %11 = load i32, ptr %10, align 4, !tbaa !14
  %.not34 = icmp eq i32 %11, 0
  br i1 %.not34, label %12, label %gz_zero.exit.thread

12:                                               ; preds = %9
  %13 = getelementptr inbounds nuw i8, ptr %0, i64 40
  %14 = load i32, ptr %13, align 8, !tbaa !15
  %15 = icmp eq i32 %14, 0
  br i1 %15, label %16, label %19

16:                                               ; preds = %12
  %17 = tail call fastcc i32 @gz_init(ptr noundef %0)
  %18 = icmp eq i32 %17, -1
  br i1 %18, label %gz_zero.exit.thread, label %19

19:                                               ; preds = %16, %12
  %20 = getelementptr inbounds nuw i8, ptr %0, i64 104
  %21 = load i32, ptr %20, align 8, !tbaa !16
  %.not35 = icmp eq i32 %21, 0
  br i1 %.not35, label %gz_zero.exit, label %22

22:                                               ; preds = %19
  store i32 0, ptr %20, align 8, !tbaa !16
  %23 = getelementptr inbounds nuw i8, ptr %0, i64 96
  %24 = load i64, ptr %23, align 8, !tbaa !17
  %25 = getelementptr inbounds nuw i8, ptr %0, i64 128
  %26 = load i32, ptr %25, align 8, !tbaa !18
  %.not.i = icmp eq i32 %26, 0
  br i1 %.not.i, label %30, label %27

27:                                               ; preds = %22
  %28 = tail call fastcc i32 @gz_comp(ptr noundef nonnull %0, i32 noundef 0)
  %29 = icmp eq i32 %28, -1
  br i1 %29, label %gz_zero.exit.thread, label %30

30:                                               ; preds = %27, %22
  %.not2224.i = icmp eq i64 %24, 0
  br i1 %.not2224.i, label %gz_zero.exit, label %.lr.ph.i

.lr.ph.i:                                         ; preds = %30
  %31 = getelementptr inbounds nuw i8, ptr %0, i64 48
  %32 = getelementptr inbounds nuw i8, ptr %0, i64 16
  br label %35

33:                                               ; preds = %43
  %34 = sub nsw i64 %.02026.i, %.pre-phi.i
  %.not22.i = icmp eq i64 %34, 0
  br i1 %.not22.i, label %gz_zero.exit, label %35, !llvm.loop !19

35:                                               ; preds = %33, %.lr.ph.i
  %.02026.i = phi i64 [ %24, %.lr.ph.i ], [ %34, %33 ]
  %.not2325.i = phi i1 [ false, %.lr.ph.i ], [ true, %33 ]
  %36 = load i32, ptr %13, align 8, !tbaa !15
  %37 = zext i32 %36 to i64
  %38 = tail call i64 @llvm.smin.i64(i64 %.02026.i, i64 %37)
  %39 = trunc i64 %38 to i32
  br i1 %.not2325.i, label %._crit_edge.i, label %40

._crit_edge.i:                                    ; preds = %35
  %.pre.i = and i64 %38, 4294967295
  br label %43

40:                                               ; preds = %35
  %41 = load ptr, ptr %31, align 8, !tbaa !21
  %42 = and i64 %38, 4294967295
  tail call void @llvm.memset.p0.i64(ptr align 1 %41, i8 0, i64 %42, i1 false)
  br label %43

43:                                               ; preds = %40, %._crit_edge.i
  %.pre-phi.i = phi i64 [ %.pre.i, %._crit_edge.i ], [ %42, %40 ]
  store i32 %39, ptr %25, align 8, !tbaa !18
  %44 = load ptr, ptr %31, align 8, !tbaa !21
  store ptr %44, ptr %6, align 8, !tbaa !22
  %45 = load i64, ptr %32, align 8, !tbaa !23
  %46 = add nsw i64 %45, %.pre-phi.i
  store i64 %46, ptr %32, align 8, !tbaa !23
  %47 = tail call fastcc i32 @gz_comp(ptr noundef nonnull %0, i32 noundef 0)
  %48 = icmp eq i32 %47, -1
  br i1 %48, label %gz_zero.exit.thread, label %33

gz_zero.exit:                                     ; preds = %33, %30, %19
  %49 = getelementptr inbounds nuw i8, ptr %0, i64 128
  %50 = load i32, ptr %49, align 8, !tbaa !18
  %.not36 = icmp eq i32 %50, 0
  br i1 %.not36, label %54, label %51

51:                                               ; preds = %gz_zero.exit
  %52 = tail call fastcc i32 @gz_comp(ptr noundef %0, i32 noundef 0)
  %53 = icmp eq i32 %52, -1
  br i1 %53, label %gz_zero.exit.thread, label %54

54:                                               ; preds = %51, %gz_zero.exit
  %55 = load i32, ptr %13, align 8, !tbaa !15
  %56 = getelementptr inbounds nuw i8, ptr %0, i64 48
  %57 = load ptr, ptr %56, align 8, !tbaa !21
  %58 = add nsw i32 %55, -1
  %59 = sext i32 %58 to i64
  %60 = getelementptr inbounds i8, ptr %57, i64 %59
  store i8 0, ptr %60, align 1, !tbaa !36
  %61 = load ptr, ptr %56, align 8, !tbaa !21
  %62 = sext i32 %55 to i64
  %63 = tail call i32 @vsnprintf(ptr noundef %61, i64 noundef %62, ptr noundef %1, ptr noundef %2) #14
  %64 = icmp sgt i32 %63, 0
  %.not37 = icmp slt i32 %63, %55
  %or.cond = and i1 %64, %.not37
  br i1 %or.cond, label %65, label %gz_zero.exit.thread

65:                                               ; preds = %54
  %66 = load ptr, ptr %56, align 8, !tbaa !21
  %67 = getelementptr inbounds i8, ptr %66, i64 %59
  %68 = load i8, ptr %67, align 1, !tbaa !36
  %.not38 = icmp eq i8 %68, 0
  br i1 %.not38, label %69, label %gz_zero.exit.thread

69:                                               ; preds = %65
  store i32 %63, ptr %49, align 8, !tbaa !18
  store ptr %66, ptr %6, align 8, !tbaa !22
  %70 = zext nneg i32 %63 to i64
  %71 = getelementptr inbounds nuw i8, ptr %0, i64 16
  %72 = load i64, ptr %71, align 8, !tbaa !23
  %73 = add nsw i64 %72, %70
  store i64 %73, ptr %71, align 8, !tbaa !23
  br label %gz_zero.exit.thread

gz_zero.exit.thread:                              ; preds = %43, %27, %54, %65, %51, %16, %5, %9, %3, %69
  %.0 = phi i32 [ %63, %69 ], [ -1, %3 ], [ 0, %9 ], [ 0, %5 ], [ 0, %16 ], [ 0, %51 ], [ 0, %65 ], [ 0, %54 ], [ 0, %27 ], [ 0, %43 ]
  ret i32 %.0
}